target datalayout = "e-m:e-p270:32:32-p271:32:32-p272:64:64-i64:64-i128:128-f80:128-n8:16:32:64-S128"
target triple = "x86_64-pc-linux-gnu"

@hf_gryphon_ldf_get_frame_num_signals = internal global i32 0, align 4
@hf_gryphon_ldf_signal_name = internal global i32 0, align 4
@hf_gryphon_cnvt_valuef = internal global i32 0, align 4
@.str.1041 = private unnamed_addr constant [5 x i8] c"%.2f\00", align 1

; Function Attrs: null_pointer_is_valid sspstrong uwtable
define internal i32 @cmd_cnvt_set_values(ptr noundef %0, i32 noundef %1, ptr noundef %2) #0 {
  %4 = alloca ptr, align 8
  %5 = alloca i32, align 4
  %6 = alloca ptr, align 8
  %7 = alloca i8, align 1
  %8 = alloca i32, align 4
  %9 = alloca i32, align 4
  %10 = alloca float, align 4
  store ptr %0, ptr %4, align 8
  store i32 %1, ptr %5, align 4
  store ptr %2, ptr %6, align 8
  call void @llvm.lifetime.start.p0(i64 1, ptr %7) #7
  call void @llvm.lifetime.start.p0(i64 4, ptr %8) #7
  call void @llvm.lifetime.start.p0(i64 4, ptr %9) #7
  call void @llvm.lifetime.start.p0(i64 4, ptr %10) #7
  %11 = load ptr, ptr %4, align 8
  %12 = load i32, ptr %5, align 4
  %13 = call zeroext i8 @tvb_get_uint8(ptr noundef %11, i32 noundef %12)
  store i8 %13, ptr %7, align 1
  %14 = load ptr, ptr %6, align 8
  %15 = load i32, ptr @hf_gryphon_ldf_get_frame_num_signals, align 4
  %16 = load ptr, ptr %4, align 8
  %17 = load i32, ptr %5, align 4
  %18 = call ptr @proto_tree_add_item(ptr noundef %14, i32 noundef %15, ptr noundef %16, i32 noundef %17, i32 noundef 1, i32 noundef 0)
  %19 = load i32, ptr %5, align 4
  %20 = add i32 %19, 1
  store i32 %20, ptr %5, align 4
  store i32 0, ptr %9, align 4
  br label %21

21:                                               ; preds = %48, %3
  %22 = load i32, ptr %9, align 4
  %23 = load i8, ptr %7, align 1
  %24 = zext i8 %23 to i32
  %25 = icmp slt i32 %22, %24
  br i1 %25, label %26, label %51

26:                                               ; preds = %21
  %27 = load ptr, ptr %6, align 8
  %28 = load i32, ptr @hf_gryphon_ldf_signal_name, align 4
  %29 = load ptr, ptr %4, align 8
  %30 = load i32, ptr %5, align 4
  %31 = call ptr @proto_tree_add_item_ret_length(ptr noundef %27, i32 noundef %28, ptr noundef %29, i32 noundef %30, i32 noundef -1, i32 noundef 0, ptr noundef %8)
  %32 = load i32, ptr %8, align 4
  %33 = load i32, ptr %5, align 4
  %34 = add i32 %33, %32
  store i32 %34, ptr %5, align 4
  %35 = load ptr, ptr %4, align 8
  %36 = load i32, ptr %5, align 4
  %37 = call float @tvb_get_ntohieee_float(ptr noundef %35, i32 noundef %36)
  store float %37, ptr %10, align 4
  %38 = load ptr, ptr %6, align 8
  %39 = load i32, ptr @hf_gryphon_cnvt_valuef, align 4
  %40 = load ptr, ptr %4, align 8
  %41 = load i32, ptr %5, align 4
  %42 = load float, ptr %10, align 4
  %43 = load float, ptr %10, align 4
  %44 = fpext float %43 to double
  %45 = call ptr (ptr, i32, ptr, i32, i32, float, ptr, ...) @proto_tree_add_float_format_value(ptr noundef %38, i32 noundef %39, ptr noundef %40, i32 noundef %41, i32 noundef 4, float noundef %42, ptr noundef @.str.1041, double noundef %44)
  %46 = load i32, ptr %5, align 4
  %47 = add i32 %46, 4
  store i32 %47, ptr %5, align 4
  br label %48

48:                                               ; preds = %26
  %49 = load i32, ptr %9, align 4
  %50 = add i32 %49, 1
  store i32 %50, ptr %9, align 4
  br label %21, !llvm.loop !15

51:                                               ; preds = %21
  %52 = load i32, ptr %5, align 4
  call void @llvm.lifetime.end.p0(i64 4, ptr %10) #7
  call void @llvm.lifetime.end.p0(i64 4, ptr %9) #7
  call void @llvm.lifetime.end.p0(i64 4, ptr %8) #7
  call void @llvm.lifetime.end.p0(i64 1, ptr %7) #7
  ret i32 %52
}